target datalayout = "e-m:e-p270:32:32-p271:32:32-p272:64:64-i64:64-i128:128-f80:128-n8:16:32:64-S128"
target triple = "x86_64-pc-linux-gnu"

%union.anon = type { i32 }
%struct.blockProperties_t = type { i32, i32 }

@__const.MEM_isLittleEndian.one = private unnamed_addr constant %union.anon { i32 1 }, align 4
@ZSTDv06_fcs_fieldSize = internal constant [4 x i64] [i64 0, i64 1, i64 2, i64 8], align 16

; Function Attrs: inlinehint nounwind uwtable
define internal i32 @MEM_swap32(i32 noundef %0) #2 {
  %2 = alloca i32, align 4
  store i32 %0, ptr %2, align 4, !tbaa !15
  %3 = load i32, ptr %2, align 4, !tbaa !15
  %4 = shl i32 %3, 24
  %5 = and i32 %4, -16777216
  %6 = load i32, ptr %2, align 4, !tbaa !15
  %7 = shl i32 %6, 8
  %8 = and i32 %7, 16711680
  %9 = or i32 %5, %8
  %10 = load i32, ptr %2, align 4, !tbaa !15
  %11 = lshr i32 %10, 8
  %12 = and i32 %11, 65280
  %13 = or i32 %9, %12
  %14 = load i32, ptr %2, align 4, !tbaa !15
  %15 = lshr i32 %14, 24
  %16 = and i32 %15, 255
  %17 = or i32 %13, %16
  ret i32 %17
}

; Function Attrs: inlinehint nounwind uwtable
define internal i32 @MEM_read32(ptr noundef %0) #2 {
  %2 = alloca ptr, align 8
  %3 = alloca i32, align 4
  store ptr %0, ptr %2, align 8, !tbaa !12
  call void @llvm.lifetime.start.p0(i64 4, ptr %3) #10
  %4 = load ptr, ptr %2, align 8, !tbaa !12
  call void @llvm.memcpy.p0.p0.i64(ptr align 4 %3, ptr align 1 %4, i64 4, i1 false)
  %5 = load i32, ptr %3, align 4, !tbaa !15
  call void @llvm.lifetime.end.p0(i64 4, ptr %3) #10
  ret i32 %5
}

; Function Attrs: inlinehint nounwind uwtable
define internal i32 @MEM_isLittleEndian() #2 {
  %1 = alloca %union.anon, align 4
  call void @llvm.lifetime.start.p0(i64 4, ptr %1) #10
  call void @llvm.memcpy.p0.p0.i64(ptr align 4 %1, ptr align 4 @__const.MEM_isLittleEndian.one, i64 4, i1 false)
  %2 = getelementptr inbounds [4 x i8], ptr %1, i64 0, i64 0
  %3 = load i8, ptr %2, align 4, !tbaa !34
  %4 = zext i8 %3 to i32
  call void @llvm.lifetime.end.p0(i64 4, ptr %1) #10
  ret i32 %4
}

; Function Attrs: nounwind uwtable
define internal i64 @ZSTDv06_getcBlockSize(ptr noundef %0, i64 noundef %1, ptr noundef %2) #0 {
  %4 = alloca i64, align 8
  %5 = alloca ptr, align 8
  %6 = alloca i64, align 8
  %7 = alloca ptr, align 8
  %8 = alloca ptr, align 8
  %9 = alloca i32, align 4
  %10 = alloca i32, align 4
  store ptr %0, ptr %5, align 8, !tbaa !12
  store i64 %1, ptr %6, align 8, !tbaa !3
  store ptr %2, ptr %7, align 8, !tbaa !12
  call void @llvm.lifetime.start.p0(i64 8, ptr %8) #10
  %11 = load ptr, ptr %5, align 8, !tbaa !12
  store ptr %11, ptr %8, align 8, !tbaa !13
  call void @llvm.lifetime.start.p0(i64 4, ptr %9) #10
  %12 = load i64, ptr %6, align 8, !tbaa !3
  %13 = icmp ult i64 %12, 3
  br i1 %13, label %14, label %15

14:                                               ; preds = %3
  store i64 -72, ptr %4, align 8
  store i32 1, ptr %10, align 4
  br label %64

15:                                               ; preds = %3
  %16 = load ptr, ptr %8, align 8, !tbaa !13
  %17 = load i8, ptr %16, align 1, !tbaa !34
  %18 = zext i8 %17 to i32
  %19 = ashr i32 %18, 6
  %20 = load ptr, ptr %7, align 8, !tbaa !12
  %21 = getelementptr inbounds nuw %struct.blockProperties_t, ptr %20, i32 0, i32 0
  store i32 %19, ptr %21, align 4, !tbaa !71
  %22 = load ptr, ptr %8, align 8, !tbaa !13
  %23 = getelementptr inbounds i8, ptr %22, i64 2
  %24 = load i8, ptr %23, align 1, !tbaa !34
  %25 = zext i8 %24 to i32
  %26 = load ptr, ptr %8, align 8, !tbaa !13
  %27 = getelementptr inbounds i8, ptr %26, i64 1
  %28 = load i8, ptr %27, align 1, !tbaa !34
  %29 = zext i8 %28 to i32
  %30 = shl i32 %29, 8
  %31 = add nsw i32 %25, %30
  %32 = load ptr, ptr %8, align 8, !tbaa !13
  %33 = getelementptr inbounds i8, ptr %32, i64 0
  %34 = load i8, ptr %33, align 1, !tbaa !34
  %35 = zext i8 %34 to i32
  %36 = and i32 %35, 7
  %37 = shl i32 %36, 16
  %38 = add nsw i32 %31, %37
  store i32 %38, ptr %9, align 4, !tbaa !15
  %39 = load ptr, ptr %7, align 8, !tbaa !12
  %40 = getelementptr inbounds nuw %struct.blockProperties_t, ptr %39, i32 0, i32 0
  %41 = load i32, ptr %40, align 4, !tbaa !71
  %42 = icmp eq i32 %41, 2
  br i1 %42, label %43, label %45

43:                                               ; preds = %15
  %44 = load i32, ptr %9, align 4, !tbaa !15
  br label %46

45:                                               ; preds = %15
  br label %46

46:                                               ; preds = %45, %43
  %47 = phi i32 [ %44, %43 ], [ 0, %45 ]
  %48 = load ptr, ptr %7, align 8, !tbaa !12
  %49 = getelementptr inbounds nuw %struct.blockProperties_t, ptr %48, i32 0, i32 1
  store i32 %47, ptr %49, align 4, !tbaa !73
  %50 = load ptr, ptr %7, align 8, !tbaa !12
  %51 = getelementptr inbounds nuw %struct.blockProperties_t, ptr %50, i32 0, i32 0
  %52 = load i32, ptr %51, align 4, !tbaa !71
  %53 = icmp eq i32 %52, 3
  br i1 %53, label %54, label %55

54:                                               ; preds = %46
  store i64 0, ptr %4, align 8
  store i32 1, ptr %10, align 4
  br label %64

55:                                               ; preds = %46
  %56 = load ptr, ptr %7, align 8, !tbaa !12
  %57 = getelementptr inbounds nuw %struct.blockProperties_t, ptr %56, i32 0, i32 0
  %58 = load i32, ptr %57, align 4, !tbaa !71
  %59 = icmp eq i32 %58, 2
  br i1 %59, label %60, label %61

60:                                               ; preds = %55
  store i64 1, ptr %4, align 8
  store i32 1, ptr %10, align 4
  br label %64

61:                                               ; preds = %55
  %62 = load i32, ptr %9, align 4, !tbaa !15
  %63 = zext i32 %62 to i64
  store i64 %63, ptr %4, align 8
  store i32 1, ptr %10, align 4
  br label %64

64:                                               ; preds = %61, %60, %54, %14
  call void @llvm.lifetime.end.p0(i64 4, ptr %9) #10
  call void @llvm.lifetime.end.p0(i64 8, ptr %8) #10
  %65 = load i64, ptr %4, align 8
  ret i64 %65
}

; Function Attrs: inlinehint nounwind uwtable
define internal i32 @MEM_readLE32(ptr noundef %0) #2 {
  %2 = alloca i32, align 4
  %3 = alloca ptr, align 8
  store ptr %0, ptr %3, align 8, !tbaa !12
  %4 = call i32 @MEM_isLittleEndian()
  %5 = icmp ne i32 %4, 0
  br i1 %5, label %6, label %9

6:                                                ; preds = %1
  %7 = load ptr, ptr %3, align 8, !tbaa !12
  %8 = call i32 @MEM_read32(ptr noundef %7)
  store i32 %8, ptr %2, align 4
  br label %13

9:                                                ; preds = %1
  %10 = load ptr, ptr %3, align 8, !tbaa !12
  %11 = call i32 @MEM_read32(ptr noundef %10)
  %12 = call i32 @MEM_swap32(i32 noundef %11)
  store i32 %12, ptr %2, align 4
  br label %13

13:                                               ; preds = %9, %6
  %14 = load i32, ptr %2, align 4
  ret i32 %14
}

; Function Attrs: nounwind uwtable
define internal void @ZSTD_errorFrameSizeInfoLegacy(ptr noundef %0, ptr noundef %1, i64 noundef %2) #0 {
  %4 = alloca ptr, align 8
  %5 = alloca ptr, align 8
  %6 = alloca i64, align 8
  store ptr %0, ptr %4, align 8, !tbaa !91
  store ptr %1, ptr %5, align 8, !tbaa !93
  store i64 %2, ptr %6, align 8, !tbaa !3
  %7 = load i64, ptr %6, align 8, !tbaa !3
  %8 = load ptr, ptr %4, align 8, !tbaa !91
  store i64 %7, ptr %8, align 8, !tbaa !3
  %9 = load ptr, ptr %5, align 8, !tbaa !93
  store i64 -2, ptr %9, align 8, !tbaa !95
  ret void
}

; Function Attrs: nounwind uwtable
define internal i32 @ERR_isError(i64 noundef %0) #0 {
  %2 = alloca i64, align 8
  store i64 %0, ptr %2, align 8, !tbaa !3
  %3 = load i64, ptr %2, align 8, !tbaa !3
  %4 = icmp ugt i64 %3, -120
  %5 = zext i1 %4 to i32
  ret i32 %5
}

; Function Attrs: nounwind uwtable
define internal i64 @ZSTDv06_frameHeaderSize(ptr noundef %0, i64 noundef %1) #0 {
  %3 = alloca i64, align 8
  %4 = alloca ptr, align 8
  %5 = alloca i64, align 8
  %6 = alloca i32, align 4
  store ptr %0, ptr %4, align 8, !tbaa !12
  store i64 %1, ptr %5, align 8, !tbaa !3
  %7 = load i64, ptr %5, align 8, !tbaa !3
  %8 = icmp ult i64 %7, 5
  br i1 %8, label %9, label %10

9:                                                ; preds = %2
  store i64 -72, ptr %3, align 8
  br label %21

10:                                               ; preds = %2
  call void @llvm.lifetime.start.p0(i64 4, ptr %6) #10
  %11 = load ptr, ptr %4, align 8, !tbaa !12
  %12 = getelementptr inbounds i8, ptr %11, i64 4
  %13 = load i8, ptr %12, align 1, !tbaa !34
  %14 = zext i8 %13 to i32
  %15 = ashr i32 %14, 6
  store i32 %15, ptr %6, align 4, !tbaa !15
  %16 = load i32, ptr %6, align 4, !tbaa !15
  %17 = zext i32 %16 to i64
  %18 = getelementptr inbounds nuw [4 x i64], ptr @ZSTDv06_fcs_fieldSize, i64 0, i64 %17
  %19 = load i64, ptr %18, align 8, !tbaa !3
  %20 = add i64 5, %19
  store i64 %20, ptr %3, align 8
  call void @llvm.lifetime.end.p0(i64 4, ptr %6) #10
  br label %21

21:                                               ; preds = %10, %9
  %22 = load i64, ptr %3, align 8
  ret i64 %22
}

; Function Attrs: nounwind uwtable
define void @ZSTDv06_findFrameSizeInfoLegacy(ptr noundef %0, i64 noundef %1, ptr noundef %2, ptr noundef %3) #0 {
  %5 = alloca ptr, align 8
  %6 = alloca i64, align 8
  %7 = alloca ptr, align 8
  %8 = alloca ptr, align 8
  %9 = alloca ptr, align 8
  %10 = alloca i64, align 8
  %11 = alloca i64, align 8
  %12 = alloca %struct.blockProperties_t, align 4
  %13 = alloca i64, align 8
  %14 = alloca i32, align 4
  %15 = alloca i64, align 8
  store ptr %0, ptr %5, align 8, !tbaa !12
  store i64 %1, ptr %6, align 8, !tbaa !3
  store ptr %2, ptr %7, align 8, !tbaa !91
  store ptr %3, ptr %8, align 8, !tbaa !93
  call void @llvm.lifetime.start.p0(i64 8, ptr %9) #10
  %16 = load ptr, ptr %5, align 8, !tbaa !12
  store ptr %16, ptr %9, align 8, !tbaa !13
  call void @llvm.lifetime.start.p0(i64 8, ptr %10) #10
  %17 = load i64, ptr %6, align 8, !tbaa !3
  store i64 %17, ptr %10, align 8, !tbaa !3
  call void @llvm.lifetime.start.p0(i64 8, ptr %11) #10
  store i64 0, ptr %11, align 8, !tbaa !3
  call void @llvm.lifetime.start.p0(i64 8, ptr %12) #10
  call void @llvm.memset.p0.i64(ptr align 4 %12, i8 0, i64 8, i1 false)
  call void @llvm.lifetime.start.p0(i64 8, ptr %13) #10
  %18 = load ptr, ptr %5, align 8, !tbaa !12
  %19 = load i64, ptr %6, align 8, !tbaa !3
  %20 = call i64 @ZSTDv06_frameHeaderSize(ptr noundef %18, i64 noundef %19)
  store i64 %20, ptr %13, align 8, !tbaa !3
  %21 = load i64, ptr %13, align 8, !tbaa !3
  %22 = call i32 @ERR_isError(i64 noundef %21)
  %23 = icmp ne i32 %22, 0
  br i1 %23, label %24, label %28

24:                                               ; preds = %4
  %25 = load ptr, ptr %7, align 8, !tbaa !91
  %26 = load ptr, ptr %8, align 8, !tbaa !93
  %27 = load i64, ptr %13, align 8, !tbaa !3
  call void @ZSTD_errorFrameSizeInfoLegacy(ptr noundef %25, ptr noundef %26, i64 noundef %27)
  store i32 1, ptr %14, align 4
  br label %50

28:                                               ; preds = %4
  %29 = load ptr, ptr %5, align 8, !tbaa !12
  %30 = call i32 @MEM_readLE32(ptr noundef %29)
  %31 = icmp ne i32 %30, -47205082
  br i1 %31, label %32, label %35

32:                                               ; preds = %28
  %33 = load ptr, ptr %7, align 8, !tbaa !91
  %34 = load ptr, ptr %8, align 8, !tbaa !93
  call void @ZSTD_errorFrameSizeInfoLegacy(ptr noundef %33, ptr noundef %34, i64 noundef -10)
  store i32 1, ptr %14, align 4
  br label %50

35:                                               ; preds = %28
  %36 = load i64, ptr %6, align 8, !tbaa !3
  %37 = load i64, ptr %13, align 8, !tbaa !3
  %38 = add i64 %37, 3
  %39 = icmp ult i64 %36, %38
  br i1 %39, label %40, label %43

40:                                               ; preds = %35
  %41 = load ptr, ptr %7, align 8, !tbaa !91
  %42 = load ptr, ptr %8, align 8, !tbaa !93
  call void @ZSTD_errorFrameSizeInfoLegacy(ptr noundef %41, ptr noundef %42, i64 noundef -72)
  store i32 1, ptr %14, align 4
  br label %50

43:                                               ; preds = %35
  %44 = load i64, ptr %13, align 8, !tbaa !3
  %45 = load ptr, ptr %9, align 8, !tbaa !13
  %46 = getelementptr inbounds nuw i8, ptr %45, i64 %44
  store ptr %46, ptr %9, align 8, !tbaa !13
  %47 = load i64, ptr %13, align 8, !tbaa !3
  %48 = load i64, ptr %10, align 8, !tbaa !3
  %49 = sub i64 %48, %47
  store i64 %49, ptr %10, align 8, !tbaa !3
  store i32 0, ptr %14, align 4
  br label %50

50:                                               ; preds = %43, %40, %32, %24
  call void @llvm.lifetime.end.p0(i64 8, ptr %13) #10
  %51 = load i32, ptr %14, align 4
  switch i32 %51, label %102 [
    i32 0, label %52
  ]

52:                                               ; preds = %50
  br label %53

53:                                               ; preds = %91, %52
  br label %54

54:                                               ; preds = %53
  call void @llvm.lifetime.start.p0(i64 8, ptr %15) #10
  %55 = load ptr, ptr %9, align 8, !tbaa !13
  %56 = load i64, ptr %10, align 8, !tbaa !3
  %57 = call i64 @ZSTDv06_getcBlockSize(ptr noundef %55, i64 noundef %56, ptr noundef %12)
  store i64 %57, ptr %15, align 8, !tbaa !3
  %58 = load i64, ptr %15, align 8, !tbaa !3
  %59 = call i32 @ERR_isError(i64 noundef %58)
  %60 = icmp ne i32 %59, 0
  br i1 %60, label %61, label %65

61:                                               ; preds = %54
  %62 = load ptr, ptr %7, align 8, !tbaa !91
  %63 = load ptr, ptr %8, align 8, !tbaa !93
  %64 = load i64, ptr %15, align 8, !tbaa !3
  call void @ZSTD_errorFrameSizeInfoLegacy(ptr noundef %62, ptr noundef %63, i64 noundef %64)
  store i32 1, ptr %14, align 4
  br label %89

65:                                               ; preds = %54
  %66 = load ptr, ptr %9, align 8, !tbaa !13
  %67 = getelementptr inbounds nuw i8, ptr %66, i64 3
  store ptr %67, ptr %9, align 8, !tbaa !13
  %68 = load i64, ptr %10, align 8, !tbaa !3
  %69 = sub i64 %68, 3
  store i64 %69, ptr %10, align 8, !tbaa !3
  %70 = load i64, ptr %15, align 8, !tbaa !3
  %71 = load i64, ptr %10, align 8, !tbaa !3
  %72 = icmp ugt i64 %70, %71
  br i1 %72, label %73, label %76

73:                                               ; preds = %65
  %74 = load ptr, ptr %7, align 8, !tbaa !91
  %75 = load ptr, ptr %8, align 8, !tbaa !93
  call void @ZSTD_errorFrameSizeInfoLegacy(ptr noundef %74, ptr noundef %75, i64 noundef -72)
  store i32 1, ptr %14, align 4
  br label %89

76:                                               ; preds = %65
  %77 = load i64, ptr %15, align 8, !tbaa !3
  %78 = icmp eq i64 %77, 0
  br i1 %78, label %79, label %80

79:                                               ; preds = %76
  store i32 3, ptr %14, align 4
  br label %89

80:                                               ; preds = %76
  %81 = load i64, ptr %15, align 8, !tbaa !3
  %82 = load ptr, ptr %9, align 8, !tbaa !13
  %83 = getelementptr inbounds nuw i8, ptr %82, i64 %81
  store ptr %83, ptr %9, align 8, !tbaa !13
  %84 = load i64, ptr %15, align 8, !tbaa !3
  %85 = load i64, ptr %10, align 8, !tbaa !3
  %86 = sub i64 %85, %84
  store i64 %86, ptr %10, align 8, !tbaa !3
  %87 = load i64, ptr %11, align 8, !tbaa !3
  %88 = add i64 %87, 1
  store i64 %88, ptr %11, align 8, !tbaa !3
  store i32 0, ptr %14, align 4
  br label %89

89:                                               ; preds = %80, %79, %73, %61
  call void @llvm.lifetime.end.p0(i64 8, ptr %15) #10
  %90 = load i32, ptr %14, align 4
  switch i32 %90, label %102 [
    i32 0, label %91
    i32 3, label %92
  ]

91:                                               ; preds = %89
  br label %53

92:                                               ; preds = %89
  %93 = load ptr, ptr %9, align 8, !tbaa !13
  %94 = load ptr, ptr %5, align 8, !tbaa !12
  %95 = ptrtoint ptr %93 to i64
  %96 = ptrtoint ptr %94 to i64
  %97 = sub i64 %95, %96
  %98 = load ptr, ptr %7, align 8, !tbaa !91
  store i64 %97, ptr %98, align 8, !tbaa !3
  %99 = load i64, ptr %11, align 8, !tbaa !3
  %100 = mul i64 %99, 131072
  %101 = load ptr, ptr %8, align 8, !tbaa !93
  store i64 %100, ptr %101, align 8, !tbaa !95
  store i32 0, ptr %14, align 4
  br label %102

102:                                              ; preds = %92, %89, %50
  call void @llvm.lifetime.end.p0(i64 8, ptr %12) #10
  call void @llvm.lifetime.end.p0(i64 8, ptr %11) #10
  call void @llvm.lifetime.end.p0(i64 8, ptr %10) #10
  call void @llvm.lifetime.end.p0(i64 8, ptr %9) #10
  %103 = load i32, ptr %14, align 4
  switch i32 %103, label %105 [
    i32 0, label %104
    i32 1, label %104
  ]

104:                                              ; preds = %102, %102
  ret void

105:                                              ; preds = %102
  unreachable
}