; Function Attrs: nofree norecurse nosync nounwind memory(argmem: readwrite) uwtable
define void @ZSTDv06_findFrameSizeInfoLegacy(ptr noundef %0, i64 noundef %1, ptr noundef writeonly captures(none) %2, ptr noundef writeonly captures(none) %3) local_unnamed_addr #2 {
  %5 = icmp ult i64 %1, 5
  br i1 %5, label %ZSTDv06_frameHeaderSize.exit.thread, label %ZSTDv06_frameHeaderSize.exit

ZSTDv06_frameHeaderSize.exit:                     ; preds = %4
  %6 = getelementptr inbounds nuw i8, ptr %0, i64 4
  %7 = load i8, ptr %6, align 1, !tbaa !27
  %8 = lshr i8 %7, 6
  %9 = zext nneg i8 %8 to i64
  %10 = getelementptr inbounds nuw [4 x i64], ptr @ZSTDv06_fcs_fieldSize, i64 0, i64 %9
  %11 = load i64, ptr %10, align 8, !tbaa !75
  %12 = add i64 %11, 5
  %13 = icmp ult i64 %12, -119
  br i1 %13, label %14, label %ZSTDv06_frameHeaderSize.exit.thread

ZSTDv06_frameHeaderSize.exit.thread:              ; preds = %4, %ZSTDv06_frameHeaderSize.exit
  %.0.i60 = phi i64 [ %12, %ZSTDv06_frameHeaderSize.exit ], [ -72, %4 ]
  store i64 %.0.i60, ptr %2, align 8, !tbaa !75
  br label %.thread

14:                                               ; preds = %ZSTDv06_frameHeaderSize.exit
  %.val = load i32, ptr %0, align 1
  %.not55 = icmp eq i32 %.val, -47205082
  br i1 %.not55, label %16, label %15

15:                                               ; preds = %14
  store i64 -10, ptr %2, align 8, !tbaa !75
  br label %.thread

16:                                               ; preds = %14
  %17 = add i64 %11, 8
  %18 = icmp ult i64 %1, %17
  br i1 %18, label %19, label %20

19:                                               ; preds = %16
  store i64 -72, ptr %2, align 8, !tbaa !75
  br label %.thread

20:                                               ; preds = %16
  %21 = sub i64 %1, %12
  %22 = icmp ult i64 %21, 3
  br i1 %22, label %._crit_edge, label %.lr.ph.preheader

.lr.ph.preheader:                                 ; preds = %20
  %23 = getelementptr inbounds nuw i8, ptr %0, i64 %12
  br label %.lr.ph

.lr.ph:                                           ; preds = %.lr.ph.preheader, %.thread109
  %.196 = phi ptr [ %48, %.thread109 ], [ %23, %.lr.ph.preheader ]
  %.14695 = phi i64 [ %49, %.thread109 ], [ %21, %.lr.ph.preheader ]
  %.04894 = phi i64 [ %50, %.thread109 ], [ 0, %.lr.ph.preheader ]
  %24 = load i8, ptr %.196, align 1, !tbaa !27
  %25 = lshr i8 %24, 6
  switch i8 %25, label %26 [
    i8 3, label %.loopexit
    i8 2, label %.thread106
  ]

._crit_edge:                                      ; preds = %.thread109, %20
  store i64 -72, ptr %2, align 8, !tbaa !75
  br label %.thread

26:                                               ; preds = %.lr.ph
  %27 = and i8 %24, 7
  %28 = zext nneg i8 %27 to i64
  %29 = shl nuw nsw i64 %28, 16
  %30 = getelementptr inbounds nuw i8, ptr %.196, i64 1
  %31 = load i8, ptr %30, align 1, !tbaa !27
  %32 = zext i8 %31 to i64
  %33 = shl nuw nsw i64 %32, 8
  %34 = getelementptr inbounds nuw i8, ptr %.196, i64 2
  %35 = load i8, ptr %34, align 1, !tbaa !27
  %36 = zext i8 %35 to i64
  %37 = or disjoint i64 %33, %36
  %38 = or disjoint i64 %37, %29
  %39 = add i64 %.14695, -3
  %40 = icmp ugt i64 %38, %39
  br i1 %40, label %43, label %44

.thread106:                                       ; preds = %.lr.ph
  %41 = add i64 %.14695, -3
  %42 = icmp eq i64 %41, 0
  br i1 %42, label %43, label %.thread109

43:                                               ; preds = %.thread106, %26
  store i64 -72, ptr %2, align 8, !tbaa !75
  br label %.thread

44:                                               ; preds = %26
  %45 = icmp eq i64 %38, 0
  br i1 %45, label %.loopexit, label %.thread109

.thread109:                                       ; preds = %.thread106, %44
  %.0.i57.ph108111 = phi i64 [ %38, %44 ], [ 1, %.thread106 ]
  %46 = phi i64 [ %39, %44 ], [ %41, %.thread106 ]
  %47 = getelementptr inbounds nuw i8, ptr %.196, i64 3
  %48 = getelementptr inbounds nuw i8, ptr %47, i64 %.0.i57.ph108111
  %49 = sub i64 %46, %.0.i57.ph108111
  %50 = add i64 %.04894, 1
  %51 = icmp ult i64 %49, 3
  br i1 %51, label %._crit_edge, label %.lr.ph

.loopexit:                                        ; preds = %44, %.lr.ph
  %.2.ph = getelementptr inbounds nuw i8, ptr %.196, i64 3
  %52 = ptrtoint ptr %.2.ph to i64
  %53 = ptrtoint ptr %0 to i64
  %54 = sub i64 %52, %53
  store i64 %54, ptr %2, align 8, !tbaa !75
  %55 = shl i64 %.04894, 17
  br label %.thread

.thread:                                          ; preds = %43, %._crit_edge, %19, %15, %ZSTDv06_frameHeaderSize.exit.thread, %.loopexit
  %.sink = phi i64 [ -2, %43 ], [ -2, %._crit_edge ], [ -2, %19 ], [ -2, %15 ], [ -2, %ZSTDv06_frameHeaderSize.exit.thread ], [ %55, %.loopexit ]
  store i64 %.sink, ptr %3, align 8, !tbaa !92
  ret void
}